target datalayout = "e-m:e-p270:32:32-p271:32:32-p272:64:64-i64:64-i128:128-f80:128-n8:16:32:64-S128"
target triple = "x86_64-pc-linux-gnu"

%"class.Ipopt::Matrix.base" = type <{ %"class.Ipopt::TaggedObject", %"class.Ipopt::SmartPtr", i32, i8 }>
%"class.Ipopt::TaggedObject" = type { %"class.Ipopt::ReferencedObject.base", %"class.Ipopt::Subject", i32, i32 }
%"class.Ipopt::ReferencedObject.base" = type <{ ptr, i32 }>
%"class.Ipopt::Subject" = type { ptr, %"class.std::vector" }
%"class.std::vector" = type { %"struct.std::_Vector_base" }
%"struct.std::_Vector_base" = type { %"struct.std::_Vector_base<Ipopt::Observer *, std::allocator<Ipopt::Observer *>>::_Vector_impl" }
%"struct.std::_Vector_base<Ipopt::Observer *, std::allocator<Ipopt::Observer *>>::_Vector_impl" = type { %"struct.std::_Vector_base<Ipopt::Observer *, std::allocator<Ipopt::Observer *>>::_Vector_impl_data" }
%"struct.std::_Vector_base<Ipopt::Observer *, std::allocator<Ipopt::Observer *>>::_Vector_impl_data" = type { ptr, ptr, ptr }
%"class.Ipopt::SmartPtr" = type { ptr }
%"class.Ipopt::SymMatrix" = type { %"class.Ipopt::Matrix.base", ptr }
%"class.Ipopt::IdentityMatrix" = type { %"class.Ipopt::SymMatrix", double }

; Function Attrs: mustprogress nounwind uwtable
define linkonce_odr noundef double @_ZNK5Ipopt14IdentityMatrix9GetFactorEv(ptr noundef nonnull align 8 dereferenceable(88) %0) #4 comdat align 2 {
  %2 = alloca ptr, align 8
  store ptr %0, ptr %2, align 8, !tbaa !18
  %3 = load ptr, ptr %2, align 8
  %4 = getelementptr inbounds nuw %"class.Ipopt::IdentityMatrix", ptr %3, i32 0, i32 1
  %5 = load double, ptr %4, align 8, !tbaa !177
  ret double %5
}

; Function Attrs: mustprogress uwtable
define void @_ZN5Ipopt13TripletHelper11FillValues_EiRKNS_14IdentityMatrixEPd(i32 noundef %0, ptr noundef nonnull align 8 dereferenceable(88) %1, ptr noundef %2) #0 align 2 {
  %4 = alloca i32, align 4
  %5 = alloca ptr, align 8
  %6 = alloca ptr, align 8
  %7 = alloca double, align 8
  %8 = alloca i32, align 4
  store i32 %0, ptr %4, align 4, !tbaa !72
  store ptr %1, ptr %5, align 8, !tbaa !18
  store ptr %2, ptr %6, align 8, !tbaa !115
  call void @llvm.lifetime.start.p0(i64 8, ptr %7) #15
  %9 = load ptr, ptr %5, align 8, !tbaa !18
  %10 = call noundef double @_ZNK5Ipopt14IdentityMatrix9GetFactorEv(ptr noundef nonnull align 8 dereferenceable(88) %9)
  store double %10, ptr %7, align 8, !tbaa !99
  call void @llvm.lifetime.start.p0(i64 4, ptr %8) #15
  store i32 0, ptr %8, align 4, !tbaa !72
  br label %11

11:                                               ; preds = %22, %3
  %12 = load i32, ptr %8, align 4, !tbaa !72
  %13 = load i32, ptr %4, align 4, !tbaa !72
  %14 = icmp slt i32 %12, %13
  br i1 %14, label %16, label %15

15:                                               ; preds = %11
  call void @llvm.lifetime.end.p0(i64 4, ptr %8) #15
  br label %25

16:                                               ; preds = %11
  %17 = load double, ptr %7, align 8, !tbaa !99
  %18 = load ptr, ptr %6, align 8, !tbaa !115
  %19 = load i32, ptr %8, align 4, !tbaa !72
  %20 = sext i32 %19 to i64
  %21 = getelementptr inbounds double, ptr %18, i64 %20
  store double %17, ptr %21, align 8, !tbaa !99
  br label %22

22:                                               ; preds = %16
  %23 = load i32, ptr %8, align 4, !tbaa !72
  %24 = add nsw i32 %23, 1
  store i32 %24, ptr %8, align 4, !tbaa !72
  br label %11, !llvm.loop !120

25:                                               ; preds = %15
  call void @llvm.lifetime.end.p0(i64 8, ptr %7) #15
  ret void
}